target datalayout = "e-m:e-p270:32:32-p271:32:32-p272:64:64-i64:64-i128:128-f80:128-n8:16:32:64-S128"
target triple = "x86_64-pc-linux-gnu"

%struct.Amap_Man_t_ = type { ptr, ptr, float, float, i32, i32, ptr, ptr, ptr, ptr, ptr, ptr, ptr, ptr, [7 x i32], i32, i32, i32, ptr, ptr, ptr, ptr, ptr, ptr, ptr, ptr, i32, i32, i32, i32 }
%struct.Amap_Cut_t_ = type { i32, [0 x i32] }
%struct.Amap_Obj_t_ = type { i64, i32, i32, i32, i32, [3 x i32], %union.anon, float, [2 x i32], %struct.Amap_Mat_t_ }
%union.anon = type { ptr }
%struct.Amap_Mat_t_ = type { ptr, ptr, float, float, float }
%struct.Vec_Ptr_t_ = type { i32, i32, ptr }
%struct.Amap_Par_t_ = type { i32, i32, i32, i32, i32, i32, float, float, i32 }
%struct.timespec = type { i64, i64 }

@.str.9 = private unnamed_addr constant [26 x i8] c"AIG object is %d bytes.  \00", align 1
@.str.10 = private unnamed_addr constant [59 x i8] c"Internal AIG = %5.2f MB.  Cuts = %5.2f MB.  CutsMax = %d.\0A\00", align 1
@.str.11 = private unnamed_addr constant [56 x i8] c"Node =%6d. Try =%9d. Try3 =%10d. Used =%7d. R =%6.2f.  \00", align 1
@.str.12 = private unnamed_addr constant [5 x i8] c"%s =\00", align 1
@.str.13 = private unnamed_addr constant [6 x i8] c"Time \00", align 1
@.str.14 = private unnamed_addr constant [11 x i8] c"%9.2f sec\0A\00", align 1

; Function Attrs: inlinehint nounwind uwtable
define internal i32 @Abc_Var2Lit(i32 noundef %0, i32 noundef %1) #3 {
  %3 = alloca i32, align 4
  %4 = alloca i32, align 4
  store i32 %0, ptr %3, align 4, !tbaa !8
  store i32 %1, ptr %4, align 4, !tbaa !8
  %5 = load i32, ptr %3, align 4, !tbaa !8
  %6 = load i32, ptr %3, align 4, !tbaa !8
  %7 = add nsw i32 %5, %6
  %8 = load i32, ptr %4, align 4, !tbaa !8
  %9 = add nsw i32 %7, %8
  ret i32 %9
}

; Function Attrs: inlinehint nounwind uwtable
define internal i32 @Amap_ManPiNum(ptr noundef %0) #3 {
  %2 = alloca ptr, align 8
  store ptr %0, ptr %2, align 8, !tbaa !3
  %3 = load ptr, ptr %2, align 8, !tbaa !3
  %4 = getelementptr inbounds nuw %struct.Amap_Man_t_, ptr %3, i32 0, i32 14
  %5 = getelementptr inbounds [7 x i32], ptr %4, i64 0, i64 2
  %6 = load i32, ptr %5, align 8, !tbaa !8
  ret i32 %6
}

; Function Attrs: inlinehint nounwind uwtable
define internal i32 @Amap_ManNodeNum(ptr noundef %0) #3 {
  %2 = alloca ptr, align 8
  store ptr %0, ptr %2, align 8, !tbaa !3
  %3 = load ptr, ptr %2, align 8, !tbaa !3
  %4 = getelementptr inbounds nuw %struct.Amap_Man_t_, ptr %3, i32 0, i32 14
  %5 = getelementptr inbounds [7 x i32], ptr %4, i64 0, i64 4
  %6 = load i32, ptr %5, align 8, !tbaa !8
  %7 = load ptr, ptr %2, align 8, !tbaa !3
  %8 = getelementptr inbounds nuw %struct.Amap_Man_t_, ptr %7, i32 0, i32 14
  %9 = getelementptr inbounds [7 x i32], ptr %8, i64 0, i64 5
  %10 = load i32, ptr %9, align 4, !tbaa !8
  %11 = add nsw i32 %6, %10
  %12 = load ptr, ptr %2, align 8, !tbaa !3
  %13 = getelementptr inbounds nuw %struct.Amap_Man_t_, ptr %12, i32 0, i32 14
  %14 = getelementptr inbounds [7 x i32], ptr %13, i64 0, i64 6
  %15 = load i32, ptr %14, align 8, !tbaa !8
  %16 = add nsw i32 %11, %15
  ret i32 %16
}

; Function Attrs: inlinehint nounwind uwtable
define internal i32 @Amap_ManObjNum(ptr noundef %0) #3 {
  %2 = alloca ptr, align 8
  store ptr %0, ptr %2, align 8, !tbaa !3
  %3 = load ptr, ptr %2, align 8, !tbaa !3
  %4 = getelementptr inbounds nuw %struct.Amap_Man_t_, ptr %3, i32 0, i32 8
  %5 = load ptr, ptr %4, align 8, !tbaa !109
  %6 = call i32 @Vec_PtrSize(ptr noundef %5)
  ret i32 %6
}

; Function Attrs: inlinehint nounwind uwtable
define internal i32 @Amap_ObjIsNode(ptr noundef %0) #3 {
  %2 = alloca ptr, align 8
  store ptr %0, ptr %2, align 8, !tbaa !25
  %3 = load ptr, ptr %2, align 8, !tbaa !25
  %4 = load i64, ptr %3, align 8
  %5 = and i64 %4, 7
  %6 = trunc i64 %5 to i32
  %7 = icmp eq i32 %6, 4
  br i1 %7, label %20, label %8

8:                                                ; preds = %1
  %9 = load ptr, ptr %2, align 8, !tbaa !25
  %10 = load i64, ptr %9, align 8
  %11 = and i64 %10, 7
  %12 = trunc i64 %11 to i32
  %13 = icmp eq i32 %12, 5
  br i1 %13, label %20, label %14

14:                                               ; preds = %8
  %15 = load ptr, ptr %2, align 8, !tbaa !25
  %16 = load i64, ptr %15, align 8
  %17 = and i64 %16, 7
  %18 = trunc i64 %17 to i32
  %19 = icmp eq i32 %18, 6
  br label %20

20:                                               ; preds = %14, %8, %1
  %21 = phi i1 [ true, %8 ], [ true, %1 ], [ %19, %14 ]
  %22 = zext i1 %21 to i32
  ret i32 %22
}

; Function Attrs: inlinehint nounwind uwtable
define internal ptr @Vec_PtrEntry(ptr noundef %0, i32 noundef %1) #3 {
  %3 = alloca ptr, align 8
  %4 = alloca i32, align 4
  store ptr %0, ptr %3, align 8, !tbaa !35
  store i32 %1, ptr %4, align 4, !tbaa !8
  %5 = load ptr, ptr %3, align 8, !tbaa !35
  %6 = getelementptr inbounds nuw %struct.Vec_Ptr_t_, ptr %5, i32 0, i32 2
  %7 = load ptr, ptr %6, align 8, !tbaa !38
  %8 = load i32, ptr %4, align 4, !tbaa !8
  %9 = sext i32 %8 to i64
  %10 = getelementptr inbounds ptr, ptr %7, i64 %9
  %11 = load ptr, ptr %10, align 8, !tbaa !39
  ret ptr %11
}

; Function Attrs: inlinehint nounwind uwtable
define internal i32 @Vec_PtrSize(ptr noundef %0) #3 {
  %2 = alloca ptr, align 8
  store ptr %0, ptr %2, align 8, !tbaa !35
  %3 = load ptr, ptr %2, align 8, !tbaa !35
  %4 = getelementptr inbounds nuw %struct.Vec_Ptr_t_, ptr %3, i32 0, i32 1
  %5 = load i32, ptr %4, align 4, !tbaa !36
  ret i32 %5
}

; Function Attrs: nounwind uwtable
define ptr @Amap_ManSetupPis(ptr noundef %0) #0 {
  %2 = alloca ptr, align 8
  %3 = alloca ptr, align 8
  %4 = alloca ptr, align 8
  %5 = alloca i32, align 4
  %6 = alloca i32, align 4
  %7 = alloca ptr, align 8
  store ptr %0, ptr %2, align 8, !tbaa !3
  call void @llvm.lifetime.start.p0(i64 8, ptr %3) #10
  call void @llvm.lifetime.start.p0(i64 8, ptr %4) #10
  call void @llvm.lifetime.start.p0(i64 4, ptr %5) #10
  call void @llvm.lifetime.start.p0(i64 4, ptr %6) #10
  store i32 8, ptr %6, align 4, !tbaa !8
  call void @llvm.lifetime.start.p0(i64 8, ptr %7) #10
  %8 = load ptr, ptr %2, align 8, !tbaa !3
  %9 = call i32 @Amap_ManPiNum(ptr noundef %8)
  %10 = load i32, ptr %6, align 4, !tbaa !8
  %11 = mul nsw i32 %9, %10
  %12 = sext i32 %11 to i64
  %13 = mul i64 1, %12
  %14 = call noalias ptr @malloc(i64 noundef %13) #11
  store ptr %14, ptr %7, align 8, !tbaa !10
  store i32 0, ptr %5, align 4, !tbaa !8
  br label %15

15:                                               ; preds = %65, %1
  %16 = load i32, ptr %5, align 4, !tbaa !8
  %17 = load ptr, ptr %2, align 8, !tbaa !3
  %18 = getelementptr inbounds nuw %struct.Amap_Man_t_, ptr %17, i32 0, i32 6
  %19 = load ptr, ptr %18, align 8, !tbaa !12
  %20 = call i32 @Vec_PtrSize(ptr noundef %19)
  %21 = icmp slt i32 %16, %20
  br i1 %21, label %22, label %28

22:                                               ; preds = %15
  %23 = load ptr, ptr %2, align 8, !tbaa !3
  %24 = getelementptr inbounds nuw %struct.Amap_Man_t_, ptr %23, i32 0, i32 6
  %25 = load ptr, ptr %24, align 8, !tbaa !12
  %26 = load i32, ptr %5, align 4, !tbaa !8
  %27 = call ptr @Vec_PtrEntry(ptr noundef %25, i32 noundef %26)
  store ptr %27, ptr %3, align 8, !tbaa !25
  br label %28

28:                                               ; preds = %22, %15
  %29 = phi i1 [ false, %15 ], [ true, %22 ]
  br i1 %29, label %30, label %68

30:                                               ; preds = %28
  %31 = load ptr, ptr %7, align 8, !tbaa !10
  %32 = load i32, ptr %5, align 4, !tbaa !8
  %33 = load i32, ptr %6, align 4, !tbaa !8
  %34 = mul nsw i32 %32, %33
  %35 = sext i32 %34 to i64
  %36 = getelementptr inbounds i8, ptr %31, i64 %35
  store ptr %36, ptr %4, align 8, !tbaa !26
  %37 = load ptr, ptr %4, align 8, !tbaa !26
  %38 = load i32, ptr %37, align 4
  %39 = and i32 %38, -65536
  %40 = or i32 %39, 0
  store i32 %40, ptr %37, align 4
  %41 = load ptr, ptr %4, align 8, !tbaa !26
  %42 = load i32, ptr %41, align 4
  %43 = and i32 %42, -65537
  %44 = or i32 %43, 0
  store i32 %44, ptr %41, align 4
  %45 = load ptr, ptr %4, align 8, !tbaa !26
  %46 = load i32, ptr %45, align 4
  %47 = and i32 %46, 131071
  %48 = or i32 %47, 131072
  store i32 %48, ptr %45, align 4
  %49 = load ptr, ptr %3, align 8, !tbaa !25
  %50 = load i64, ptr %49, align 8
  %51 = lshr i64 %50, 3
  %52 = and i64 %51, 536870911
  %53 = trunc i64 %52 to i32
  %54 = call i32 @Abc_Var2Lit(i32 noundef %53, i32 noundef 0)
  %55 = load ptr, ptr %4, align 8, !tbaa !26
  %56 = getelementptr inbounds nuw %struct.Amap_Cut_t_, ptr %55, i32 0, i32 1
  %57 = getelementptr inbounds [0 x i32], ptr %56, i64 0, i64 0
  store i32 %54, ptr %57, align 4, !tbaa !8
  %58 = load ptr, ptr %4, align 8, !tbaa !26
  %59 = load ptr, ptr %3, align 8, !tbaa !25
  %60 = getelementptr inbounds nuw %struct.Amap_Obj_t_, ptr %59, i32 0, i32 6
  store ptr %58, ptr %60, align 8, !tbaa !27
  %61 = load ptr, ptr %3, align 8, !tbaa !25
  %62 = getelementptr inbounds nuw %struct.Amap_Obj_t_, ptr %61, i32 0, i32 2
  store i32 1, ptr %62, align 4, !tbaa !28
  %63 = load ptr, ptr %3, align 8, !tbaa !25
  %64 = getelementptr inbounds nuw %struct.Amap_Obj_t_, ptr %63, i32 0, i32 7
  store float 1.000000e+00, ptr %64, align 8, !tbaa !32
  br label %65

65:                                               ; preds = %30
  %66 = load i32, ptr %5, align 4, !tbaa !8
  %67 = add nsw i32 %66, 1
  store i32 %67, ptr %5, align 4, !tbaa !8
  br label %15, !llvm.loop !33

68:                                               ; preds = %28
  %69 = load ptr, ptr %7, align 8, !tbaa !10
  call void @llvm.lifetime.end.p0(i64 8, ptr %7) #10
  call void @llvm.lifetime.end.p0(i64 4, ptr %6) #10
  call void @llvm.lifetime.end.p0(i64 4, ptr %5) #10
  call void @llvm.lifetime.end.p0(i64 8, ptr %4) #10
  call void @llvm.lifetime.end.p0(i64 8, ptr %3) #10
  ret ptr %69
}

; Function Attrs: inlinehint nounwind uwtable
define internal i64 @Abc_Clock() #3 {
  %1 = alloca i64, align 8
  %2 = alloca %struct.timespec, align 8
  %3 = alloca i32, align 4
  %4 = alloca i64, align 8
  call void @llvm.lifetime.start.p0(i64 16, ptr %2) #10
  %5 = call i32 @clock_gettime(i32 noundef 1, ptr noundef %2) #10
  %6 = icmp slt i32 %5, 0
  br i1 %6, label %7, label %8

7:                                                ; preds = %0
  store i64 -1, ptr %1, align 8
  store i32 1, ptr %3, align 4
  br label %19

8:                                                ; preds = %0
  call void @llvm.lifetime.start.p0(i64 8, ptr %4) #10
  %9 = getelementptr inbounds nuw %struct.timespec, ptr %2, i32 0, i32 0
  %10 = load i64, ptr %9, align 8, !tbaa !114
  %11 = mul nsw i64 %10, 1000000
  store i64 %11, ptr %4, align 8, !tbaa !106
  %12 = getelementptr inbounds nuw %struct.timespec, ptr %2, i32 0, i32 1
  %13 = load i64, ptr %12, align 8, !tbaa !116
  %14 = mul nsw i64 %13, 1000000
  %15 = sdiv i64 %14, 1000000000
  %16 = load i64, ptr %4, align 8, !tbaa !106
  %17 = add nsw i64 %16, %15
  store i64 %17, ptr %4, align 8, !tbaa !106
  %18 = load i64, ptr %4, align 8, !tbaa !106
  store i64 %18, ptr %1, align 8
  store i32 1, ptr %3, align 4
  call void @llvm.lifetime.end.p0(i64 8, ptr %4) #10
  br label %19

19:                                               ; preds = %8, %7
  call void @llvm.lifetime.end.p0(i64 16, ptr %2) #10
  %20 = load i64, ptr %1, align 8
  ret i64 %20
}

; Function Attrs: nounwind uwtable
define void @Amap_ManMerge(ptr noundef %0) #0 {
  %2 = alloca ptr, align 8
  %3 = alloca ptr, align 8
  %4 = alloca i32, align 4
  %5 = alloca i64, align 8
  store ptr %0, ptr %2, align 8, !tbaa !3
  call void @llvm.lifetime.start.p0(i64 8, ptr %3) #10
  call void @llvm.lifetime.start.p0(i64 4, ptr %4) #10
  call void @llvm.lifetime.start.p0(i64 8, ptr %5) #10
  %6 = call i64 @Abc_Clock()
  store i64 %6, ptr %5, align 8, !tbaa !106
  %7 = load ptr, ptr %2, align 8, !tbaa !3
  %8 = call ptr @Amap_ManSetupPis(ptr noundef %7)
  %9 = load ptr, ptr %2, align 8, !tbaa !3
  %10 = getelementptr inbounds nuw %struct.Amap_Man_t_, ptr %9, i32 0, i32 21
  store ptr %8, ptr %10, align 8, !tbaa !108
  store i32 0, ptr %4, align 4, !tbaa !8
  br label %11

11:                                               ; preds = %38, %1
  %12 = load i32, ptr %4, align 4, !tbaa !8
  %13 = load ptr, ptr %2, align 8, !tbaa !3
  %14 = getelementptr inbounds nuw %struct.Amap_Man_t_, ptr %13, i32 0, i32 8
  %15 = load ptr, ptr %14, align 8, !tbaa !109
  %16 = call i32 @Vec_PtrSize(ptr noundef %15)
  %17 = icmp slt i32 %12, %16
  br i1 %17, label %18, label %24

18:                                               ; preds = %11
  %19 = load ptr, ptr %2, align 8, !tbaa !3
  %20 = getelementptr inbounds nuw %struct.Amap_Man_t_, ptr %19, i32 0, i32 8
  %21 = load ptr, ptr %20, align 8, !tbaa !109
  %22 = load i32, ptr %4, align 4, !tbaa !8
  %23 = call ptr @Vec_PtrEntry(ptr noundef %21, i32 noundef %22)
  store ptr %23, ptr %3, align 8, !tbaa !25
  br label %24

24:                                               ; preds = %18, %11
  %25 = phi i1 [ false, %11 ], [ true, %18 ]
  br i1 %25, label %26, label %41

26:                                               ; preds = %24
  %27 = load ptr, ptr %3, align 8, !tbaa !25
  %28 = icmp eq ptr %27, null
  br i1 %28, label %33, label %29

29:                                               ; preds = %26
  %30 = load ptr, ptr %3, align 8, !tbaa !25
  %31 = call i32 @Amap_ObjIsNode(ptr noundef %30)
  %32 = icmp ne i32 %31, 0
  br i1 %32, label %34, label %33

33:                                               ; preds = %29, %26
  br label %37

34:                                               ; preds = %29
  %35 = load ptr, ptr %2, align 8, !tbaa !3
  %36 = load ptr, ptr %3, align 8, !tbaa !25
  call void @Amap_ManMergeNodeCuts(ptr noundef %35, ptr noundef %36)
  br label %37

37:                                               ; preds = %34, %33
  br label %38

38:                                               ; preds = %37
  %39 = load i32, ptr %4, align 4, !tbaa !8
  %40 = add nsw i32 %39, 1
  store i32 %40, ptr %4, align 4, !tbaa !8
  br label %11, !llvm.loop !110

41:                                               ; preds = %24
  %42 = load ptr, ptr %2, align 8, !tbaa !3
  %43 = getelementptr inbounds nuw %struct.Amap_Man_t_, ptr %42, i32 0, i32 0
  %44 = load ptr, ptr %43, align 8, !tbaa !54
  %45 = getelementptr inbounds nuw %struct.Amap_Par_t_, ptr %44, i32 0, i32 8
  %46 = load i32, ptr %45, align 4, !tbaa !111
  %47 = icmp ne i32 %46, 0
  br i1 %47, label %48, label %95

48:                                               ; preds = %41
  %49 = call i32 (ptr, ...) @printf(ptr noundef @.str.9, i32 noundef 96)
  %50 = load ptr, ptr %2, align 8, !tbaa !3
  %51 = call i32 @Amap_ManObjNum(ptr noundef %50)
  %52 = sitofp i32 %51 to double
  %53 = fmul double 1.000000e+00, %52
  %54 = fmul double %53, 9.600000e+01
  %55 = fdiv double %54, 0x4130000000000000
  %56 = load ptr, ptr %2, align 8, !tbaa !3
  %57 = getelementptr inbounds nuw %struct.Amap_Man_t_, ptr %56, i32 0, i32 29
  %58 = load i32, ptr %57, align 4, !tbaa !59
  %59 = sitofp i32 %58 to double
  %60 = fmul double 1.000000e+00, %59
  %61 = fdiv double %60, 0x4130000000000000
  %62 = load ptr, ptr %2, align 8, !tbaa !3
  %63 = getelementptr inbounds nuw %struct.Amap_Man_t_, ptr %62, i32 0, i32 0
  %64 = load ptr, ptr %63, align 8, !tbaa !54
  %65 = getelementptr inbounds nuw %struct.Amap_Par_t_, ptr %64, i32 0, i32 2
  %66 = load i32, ptr %65, align 4, !tbaa !55
  %67 = call i32 (ptr, ...) @printf(ptr noundef @.str.10, double noundef %55, double noundef %61, i32 noundef %66)
  %68 = load ptr, ptr %2, align 8, !tbaa !3
  %69 = call i32 @Amap_ManNodeNum(ptr noundef %68)
  %70 = load ptr, ptr %2, align 8, !tbaa !3
  %71 = getelementptr inbounds nuw %struct.Amap_Man_t_, ptr %70, i32 0, i32 27
  %72 = load i32, ptr %71, align 4, !tbaa !105
  %73 = load ptr, ptr %2, align 8, !tbaa !3
  %74 = getelementptr inbounds nuw %struct.Amap_Man_t_, ptr %73, i32 0, i32 28
  %75 = load i32, ptr %74, align 8, !tbaa !94
  %76 = load ptr, ptr %2, align 8, !tbaa !3
  %77 = getelementptr inbounds nuw %struct.Amap_Man_t_, ptr %76, i32 0, i32 26
  %78 = load i32, ptr %77, align 8, !tbaa !93
  %79 = load ptr, ptr %2, align 8, !tbaa !3
  %80 = getelementptr inbounds nuw %struct.Amap_Man_t_, ptr %79, i32 0, i32 26
  %81 = load i32, ptr %80, align 8, !tbaa !93
  %82 = sitofp i32 %81 to double
  %83 = fmul double 1.000000e+00, %82
  %84 = load ptr, ptr %2, align 8, !tbaa !3
  %85 = call i32 @Amap_ManNodeNum(ptr noundef %84)
  %86 = sitofp i32 %85 to double
  %87 = fdiv double %83, %86
  %88 = call i32 (ptr, ...) @printf(ptr noundef @.str.11, i32 noundef %69, i32 noundef %72, i32 noundef %75, i32 noundef %78, double noundef %87)
  call void (i32, ptr, ...) @Abc_Print(i32 noundef 1, ptr noundef @.str.12, ptr noundef @.str.13)
  %89 = call i64 @Abc_Clock()
  %90 = load i64, ptr %5, align 8, !tbaa !106
  %91 = sub nsw i64 %89, %90
  %92 = sitofp i64 %91 to double
  %93 = fmul double 1.000000e+00, %92
  %94 = fdiv double %93, 1.000000e+06
  call void (i32, ptr, ...) @Abc_Print(i32 noundef 1, ptr noundef @.str.14, double noundef %94)
  br label %95

95:                                               ; preds = %48, %41
  call void @llvm.lifetime.end.p0(i64 8, ptr %5) #10
  call void @llvm.lifetime.end.p0(i64 4, ptr %4) #10
  call void @llvm.lifetime.end.p0(i64 8, ptr %3) #10
  ret void
}