; Function Attrs: nounwind uwtable
define void @Amap_ManMerge(ptr noundef captures(none) %0) local_unnamed_addr #3 {
  %2 = alloca %struct.timespec, align 8
  %3 = alloca %struct.timespec, align 8
  call void @llvm.lifetime.start.p0(i64 16, ptr nonnull %3) #16
  %4 = call i32 @clock_gettime(i32 noundef 1, ptr noundef nonnull %3) #16
  %5 = icmp slt i32 %4, 0
  br i1 %5, label %Abc_Clock.exit, label %6

6:                                                ; preds = %1
  %7 = load i64, ptr %3, align 8, !tbaa !97
  %.neg28 = mul i64 %7, -1000000
  %8 = getelementptr inbounds nuw i8, ptr %3, i64 8
  %9 = load i64, ptr %8, align 8, !tbaa !100
  %.neg = sdiv i64 %9, -1000
  %.neg29 = add i64 %.neg, %.neg28
  br label %Abc_Clock.exit

Abc_Clock.exit:                                   ; preds = %1, %6
  %.0.i.neg = phi i64 [ %.neg29, %6 ], [ 1, %1 ]
  call void @llvm.lifetime.end.p0(i64 16, ptr nonnull %3) #16
  %10 = getelementptr i8, ptr %0, i64 104
  %.val.i = load i32, ptr %10, align 8, !tbaa !3
  %11 = shl nsw i32 %.val.i, 3
  %12 = sext i32 %11 to i64
  %13 = call noalias ptr @malloc(i64 noundef %12) #15
  %14 = getelementptr inbounds nuw i8, ptr %0, i64 32
  %15 = load ptr, ptr %14, align 8, !tbaa !7
  %16 = getelementptr i8, ptr %15, i64 4
  %.val1921.i = load i32, ptr %16, align 4, !tbaa !21
  %17 = icmp sgt i32 %.val1921.i, 0
  br i1 %17, label %.lr.ph.i, label %Amap_ManSetupPis.exit

.lr.ph.i:                                         ; preds = %Abc_Clock.exit, %.lr.ph.i
  %indvars.iv.i = phi i64 [ %indvars.iv.next.i, %.lr.ph.i ], [ 0, %Abc_Clock.exit ]
  %18 = phi ptr [ %32, %.lr.ph.i ], [ %15, %Abc_Clock.exit ]
  %19 = getelementptr i8, ptr %18, i64 8
  %.val20.i = load ptr, ptr %19, align 8, !tbaa !23
  %20 = getelementptr inbounds nuw ptr, ptr %.val20.i, i64 %indvars.iv.i
  %21 = load ptr, ptr %20, align 8, !tbaa !24
  %22 = shl nsw i64 %indvars.iv.i, 3
  %23 = getelementptr inbounds nuw i8, ptr %13, i64 %22
  store i32 131072, ptr %23, align 4
  %24 = load i64, ptr %21, align 8
  %25 = trunc i64 %24 to i32
  %26 = lshr i32 %25, 2
  %27 = and i32 %26, 1073741822
  %28 = getelementptr inbounds nuw i8, ptr %23, i64 4
  store i32 %27, ptr %28, align 4, !tbaa !3
  %29 = getelementptr inbounds nuw i8, ptr %21, i64 40
  store ptr %23, ptr %29, align 8, !tbaa !25
  %30 = getelementptr inbounds nuw i8, ptr %21, i64 12
  store i32 1, ptr %30, align 4, !tbaa !26
  %31 = getelementptr inbounds nuw i8, ptr %21, i64 48
  store float 1.000000e+00, ptr %31, align 8, !tbaa !30
  %indvars.iv.next.i = add nuw nsw i64 %indvars.iv.i, 1
  %32 = load ptr, ptr %14, align 8, !tbaa !7
  %33 = getelementptr i8, ptr %32, i64 4
  %.val19.i = load i32, ptr %33, align 4, !tbaa !21
  %34 = sext i32 %.val19.i to i64
  %35 = icmp slt i64 %indvars.iv.next.i, %34
  br i1 %35, label %.lr.ph.i, label %Amap_ManSetupPis.exit, !llvm.loop !31

Amap_ManSetupPis.exit:                            ; preds = %.lr.ph.i, %Abc_Clock.exit
  %36 = getelementptr inbounds nuw i8, ptr %0, i64 160
  store ptr %13, ptr %36, align 8, !tbaa !101
  %37 = getelementptr inbounds nuw i8, ptr %0, i64 48
  %38 = load ptr, ptr %37, align 8, !tbaa !64
  %39 = getelementptr i8, ptr %38, i64 4
  %.val31 = load i32, ptr %39, align 4, !tbaa !21
  %40 = icmp sgt i32 %.val31, 0
  br i1 %40, label %.lr.ph, label %.critedge

.lr.ph:                                           ; preds = %Amap_ManSetupPis.exit, %52
  %41 = phi ptr [ %53, %52 ], [ %38, %Amap_ManSetupPis.exit ]
  %indvars.iv = phi i64 [ %indvars.iv.next, %52 ], [ 0, %Amap_ManSetupPis.exit ]
  %42 = getelementptr i8, ptr %41, i64 8
  %.val23 = load ptr, ptr %42, align 8, !tbaa !23
  %43 = getelementptr inbounds nuw ptr, ptr %.val23, i64 %indvars.iv
  %44 = load ptr, ptr %43, align 8, !tbaa !24
  %45 = icmp eq ptr %44, null
  br i1 %45, label %52, label %46

46:                                               ; preds = %.lr.ph
  %.val24 = load i64, ptr %44, align 8
  %47 = trunc i64 %.val24 to i32
  %48 = and i32 %47, 7
  %49 = and i32 %47, 6
  %switch.i = icmp ne i32 %49, 4
  %50 = icmp ne i32 %48, 6
  %narrow.i.not = and i1 %switch.i, %50
  br i1 %narrow.i.not, label %52, label %51

51:                                               ; preds = %46
  call void @Amap_ManMergeNodeCuts(ptr noundef nonnull %0, ptr noundef nonnull %44)
  %.pre = load ptr, ptr %37, align 8, !tbaa !64
  br label %52

52:                                               ; preds = %51, %46, %.lr.ph
  %53 = phi ptr [ %.pre, %51 ], [ %41, %46 ], [ %41, %.lr.ph ]
  %indvars.iv.next = add nuw nsw i64 %indvars.iv, 1
  %54 = getelementptr i8, ptr %53, i64 4
  %.val = load i32, ptr %54, align 4, !tbaa !21
  %55 = sext i32 %.val to i64
  %56 = icmp slt i64 %indvars.iv.next, %55
  br i1 %56, label %.lr.ph, label %.critedge, !llvm.loop !102

.critedge:                                        ; preds = %52, %Amap_ManSetupPis.exit
  %57 = load ptr, ptr %0, align 8, !tbaa !47
  %58 = getelementptr inbounds nuw i8, ptr %57, i64 32
  %59 = load i32, ptr %58, align 4, !tbaa !103
  %.not = icmp eq i32 %59, 0
  br i1 %.not, label %104, label %60

60:                                               ; preds = %.critedge
  %61 = call i32 (ptr, ...) @printf(ptr noundef nonnull dereferenceable(1) @.str.9, i32 noundef 96)
  %.val25 = load ptr, ptr %37, align 8, !tbaa !64
  %62 = getelementptr i8, ptr %.val25, i64 4
  %.val25.val = load i32, ptr %62, align 4, !tbaa !21
  %63 = sitofp i32 %.val25.val to double
  %64 = fmul double %63, 9.600000e+01
  %65 = fmul double %64, 0x3EB0000000000000
  %66 = getelementptr inbounds nuw i8, ptr %0, i64 212
  %67 = load i32, ptr %66, align 4, !tbaa !52
  %68 = sitofp i32 %67 to double
  %69 = fmul double %68, 0x3EB0000000000000
  %70 = load ptr, ptr %0, align 8, !tbaa !47
  %71 = getelementptr inbounds nuw i8, ptr %70, i64 8
  %72 = load i32, ptr %71, align 4, !tbaa !48
  %73 = call i32 (ptr, ...) @printf(ptr noundef nonnull dereferenceable(1) @.str.10, double noundef %65, double noundef %69, i32 noundef %72)
  %74 = getelementptr inbounds nuw i8, ptr %0, i64 112
  %75 = load i32, ptr %74, align 8, !tbaa !3
  %76 = getelementptr inbounds nuw i8, ptr %0, i64 116
  %77 = load i32, ptr %76, align 4, !tbaa !3
  %78 = add nsw i32 %77, %75
  %79 = getelementptr inbounds nuw i8, ptr %0, i64 120
  %80 = load i32, ptr %79, align 8, !tbaa !3
  %81 = add nsw i32 %78, %80
  %82 = getelementptr inbounds nuw i8, ptr %0, i64 204
  %83 = load i32, ptr %82, align 4, !tbaa !96
  %84 = getelementptr inbounds nuw i8, ptr %0, i64 208
  %85 = load i32, ptr %84, align 8, !tbaa !88
  %86 = getelementptr inbounds nuw i8, ptr %0, i64 200
  %87 = load i32, ptr %86, align 8, !tbaa !87
  %88 = sitofp i32 %87 to double
  %89 = sitofp i32 %81 to double
  %90 = fdiv double %88, %89
  %91 = call i32 (ptr, ...) @printf(ptr noundef nonnull dereferenceable(1) @.str.11, i32 noundef %81, i32 noundef %83, i32 noundef %85, i32 noundef %87, double noundef %90)
  call void (i32, ptr, ...) @Abc_Print(i32 poison, ptr noundef nonnull @.str.12, ptr noundef nonnull @.str.13)
  call void @llvm.lifetime.start.p0(i64 16, ptr nonnull %2) #16
  %92 = call i32 @clock_gettime(i32 noundef 1, ptr noundef nonnull %2) #16
  %93 = icmp slt i32 %92, 0
  br i1 %93, label %Abc_Clock.exit27, label %94

94:                                               ; preds = %60
  %95 = load i64, ptr %2, align 8, !tbaa !97
  %96 = mul nsw i64 %95, 1000000
  %97 = getelementptr inbounds nuw i8, ptr %2, i64 8
  %98 = load i64, ptr %97, align 8, !tbaa !100
  %99 = sdiv i64 %98, 1000
  %100 = add nsw i64 %99, %96
  br label %Abc_Clock.exit27

Abc_Clock.exit27:                                 ; preds = %60, %94
  %.0.i26 = phi i64 [ %100, %94 ], [ -1, %60 ]
  call void @llvm.lifetime.end.p0(i64 16, ptr nonnull %2) #16
  %101 = add i64 %.0.i26, %.0.i.neg
  %102 = sitofp i64 %101 to double
  %103 = fdiv double %102, 1.000000e+06
  call void (i32, ptr, ...) @Abc_Print(i32 poison, ptr noundef nonnull @.str.14, double noundef %103)
  br label %104

104:                                              ; preds = %Abc_Clock.exit27, %.critedge
  ret void
}